Certificate:
    Data:
        Version: 3 (0x2)
        Serial Number:
            f4:64:71:94:06:32:dd:ac
        Signature Algorithm: sha1WithRSAEncryption
        Issuer: C=US, ST=CA, O=generic_server, OU=generic_server, CN=Suraj Vijayan/emailAddress=suraj_vijayan2003@yahoo.com
        Validity
            Not Before: Dec 26 04:57:14 2011 GMT
            Not After : Dec 25 04:57:14 2014 GMT
        Subject: C=US, ST=CA, O=generic_server, OU=generic_server, CN=Suraj Vijayan/emailAddress=suraj_vijayan2003@yahoo.com
        Subject Public Key Info:
            Public Key Algorithm: rsaEncryption
                Public-Key: (1024 bit)
                Modulus:
                    00:d0:94:1d:ce:dc:d9:43:57:29:44:f7:ef:61:f9:
                    90:ea:a0:54:d4:12:e5:d4:03:5f:06:04:af:82:28:
                    78:db:70:5d:99:f3:50:cb:4d:31:a6:ad:ae:c8:cd:
                    13:14:ba:93:c4:d3:d8:6e:0b:8c:3e:38:ee:8e:af:
                    29:c1:66:8c:e5:6c:95:b8:4a:3a:4b:05:f4:38:a7:
                    59:e6:1f:7c:56:d2:a7:17:db:bf:8d:7a:82:12:1d:
                    0e:ab:32:4a:34:1b:03:bc:10:f6:74:f8:3f:54:35:
                    4e:7b:b4:e6:fb:87:65:3a:5e:91:05:d6:e0:ce:f8:
                    9a:6d:5d:cc:a4:b9:d3:46:01
                Exponent: 65537 (0x10001)
        X509v3 extensions:
            X509v3 Subject Key Identifier: 
                DD:E9:8A:48:B7:43:94:74:C1:30:1C:9F:B6:D4:6B:88:B2:A5:BC:10
            X509v3 Authority Key Identifier: 
                keyid:DD:E9:8A:48:B7:43:94:74:C1:30:1C:9F:B6:D4:6B:88:B2:A5:BC:10

            X509v3 Basic Constraints: 
                CA:TRUE
    Signature Algorithm: sha1WithRSAEncryption
        0a:d3:28:f3:44:cb:e2:ec:c0:a0:87:15:4c:d1:f4:12:b5:11:
        f3:7a:c6:5a:9a:d0:ea:e6:17:46:45:2e:c0:e6:d9:7b:ad:69:
        36:ca:cd:b7:c1:86:1b:43:31:4a:f5:dc:9d:55:e2:9e:86:22:
        40:9c:c4:48:0f:fb:9a:f3:7a:22:9b:8e:8d:5e:32:ab:44:0a:
        25:f4:f6:5e:1d:22:de:82:a6:f2:8e:28:8a:32:8f:d2:b8:74:
        76:91:ae:ba:8b:26:c6:33:db:d6:a8:73:43:2b:55:58:96:ef:
        d4:ba:cd:96:57:a6:70:9f:c8:26:88:93:46:d7:29:05:d6:04:
        ab:a4
-----BEGIN CERTIFICATE-----
MIIC8DCCAlmgAwIBAgIJAPRkcZQGMt2sMA0GCSqGSIb3DQEBBQUAMIGQMQswCQYD
VQQGEwJVUzELMAkGA1UECAwCQ0ExFzAVBgNVBAoMDmdlbmVyaWNfc2VydmVyMRcw
FQYDVQQLDA5nZW5lcmljX3NlcnZlcjEWMBQGA1UEAwwNU3VyYWogVmlqYXlhbjEq
MCgGCSqGSIb3DQEJARYbc3VyYWpfdmlqYXlhbjIwMDNAeWFob28uY29tMB4XDTEx
MTIyNjA0NTcxNFoXDTE0MTIyNTA0NTcxNFowgZAxCzAJBgNVBAYTAlVTMQswCQYD
VQQIDAJDQTEXMBUGA1UECgwOZ2VuZXJpY19zZXJ2ZXIxFzAVBgNVBAsMDmdlbmVy
aWNfc2VydmVyMRYwFAYDVQQDDA1TdXJhaiBWaWpheWFuMSowKAYJKoZIhvcNAQkB
FhtzdXJhal92aWpheWFuMjAwM0B5YWhvby5jb20wgZ8wDQYJKoZIhvcNAQEBBQAD
gY0AMIGJAoGBANCUHc7c2UNXKUT372H5kOqgVNQS5dQDXwYEr4IoeNtwXZnzUMtN
MaatrsjNExS6k8TT2G4LjD447o6vKcFmjOVslbhKOksF9DinWeYffFbSpxfbv416
ghIdDqsySjQbA7wQ9nT4P1Q1Tnu05vuHZTpekQXW4M74mm1dzKS500YBAgMBAAGj
UDBOMB0GA1UdDgQWBBTd6YpIt0OUdMEwHJ+21GuIsqW8EDAfBgNVHSMEGDAWgBTd
6YpIt0OUdMEwHJ+21GuIsqW8EDAMBgNVHRMEBTADAQH/MA0GCSqGSIb3DQEBBQUA
A4GBAArTKPNEy+LswKCHFUzR9BK1EfN6xlqa0OrmF0ZFLsDm2XutaTbKzbfBhhtD
MUr13J1V4p6GIkCcxEgP+5rzeiKbjo1eMqtECiX09l4dIt6CpvKOKIoyj9K4dHaR
rrqLJsYz29aoc0MrVViW79S6zZZXpnCfyCaIk0bXKQXWBKuk
-----END CERTIFICATE-----
